; ModuleID = '50/218.c'
source_filename = "50/218.c"
target datalayout = "e-m:e-p270:32:32-p271:32:32-p272:64:64-i64:64-f80:128-n8:16:32:64-S128"
target triple = "x86_64-pc-linux-gnu"

@.str = private unnamed_addr constant [3 x i8] c"%d\00", align 1
@.str.1 = private unnamed_addr constant [3 x i8] c"1\0A\00", align 1
@.str.2 = private unnamed_addr constant [3 x i8] c"2\0A\00", align 1
@.str.3 = private unnamed_addr constant [3 x i8] c"3\0A\00", align 1
@.str.4 = private unnamed_addr constant [3 x i8] c"4\0A\00", align 1
@.str.5 = private unnamed_addr constant [3 x i8] c"5\0A\00", align 1
@.str.6 = private unnamed_addr constant [3 x i8] c"6\0A\00", align 1
@.str.7 = private unnamed_addr constant [3 x i8] c"7\0A\00", align 1
@.str.8 = private unnamed_addr constant [3 x i8] c"8\0A\00", align 1
@.str.9 = private unnamed_addr constant [3 x i8] c"9\0A\00", align 1
@.str.10 = private unnamed_addr constant [4 x i8] c"10\0A\00", align 1
@.str.11 = private unnamed_addr constant [4 x i8] c"11\0A\00", align 1
@.str.12 = private unnamed_addr constant [4 x i8] c"12\0A\00", align 1

; Function Attrs: noinline nounwind uwtable
define dso_local i32 @main() #0 {
  %1 = alloca i32, align 4
  %2 = alloca [365 x i32], align 16
  %3 = alloca i32, align 4
  %4 = alloca i32, align 4
  %5 = alloca i32, align 4
  %6 = alloca i32, align 4
  %7 = alloca [100 x i32], align 16
  store i32 0, i32* %1, align 4
  store i32 0, i32* %5, align 4
  %8 = call i32 (i8*, ...) @__isoc99_scanf(i8* getelementptr inbounds ([3 x i8], [3 x i8]* @.str, i64 0, i64 0), i32* %3)
  store i32 0, i32* %4, align 4
  br label %9

9:                                                ; preds = %23, %0
  %10 = load i32, i32* %4, align 4
  %11 = icmp slt i32 %10, 7
  br i1 %11, label %12, label %26

12:                                               ; preds = %9
  %13 = load i32, i32* %3, align 4
  %14 = load i32, i32* %4, align 4
  %15 = sext i32 %14 to i64
  %16 = getelementptr inbounds [365 x i32], [365 x i32]* %2, i64 0, i64 %15
  store i32 %13, i32* %16, align 4
  %17 = load i32, i32* %3, align 4
  %18 = add nsw i32 %17, 1
  store i32 %18, i32* %3, align 4
  %19 = load i32, i32* %3, align 4
  %20 = icmp eq i32 %19, 8
  br i1 %20, label %21, label %22

21:                                               ; preds = %12
  br label %26

22:                                               ; preds = %12
  br label %23

23:                                               ; preds = %22
  %24 = load i32, i32* %4, align 4
  %25 = add nsw i32 %24, 1
  store i32 %25, i32* %4, align 4
  br label %9

26:                                               ; preds = %21, %9
  %27 = load i32, i32* %4, align 4
  store i32 %27, i32* %6, align 4
  store i32 1, i32* %3, align 4
  %28 = load i32, i32* %6, align 4
  %29 = add nsw i32 %28, 1
  store i32 %29, i32* %4, align 4
  br label %30

30:                                               ; preds = %46, %26
  %31 = load i32, i32* %4, align 4
  %32 = load i32, i32* %6, align 4
  %33 = sub nsw i32 365, %32
  %34 = icmp slt i32 %31, %33
  br i1 %34, label %35, label %49

35:                                               ; preds = %30
  %36 = load i32, i32* %3, align 4
  %37 = load i32, i32* %4, align 4
  %38 = sext i32 %37 to i64
  %39 = getelementptr inbounds [365 x i32], [365 x i32]* %2, i64 0, i64 %38
  store i32 %36, i32* %39, align 4
  %40 = load i32, i32* %3, align 4
  %41 = add nsw i32 %40, 1
  store i32 %41, i32* %3, align 4
  %42 = load i32, i32* %3, align 4
  %43 = icmp eq i32 %42, 8
  br i1 %43, label %44, label %45

44:                                               ; preds = %35
  store i32 1, i32* %3, align 4
  br label %45

45:                                               ; preds = %44, %35
  br label %46

46:                                               ; preds = %45
  %47 = load i32, i32* %4, align 4
  %48 = add nsw i32 %47, 1
  store i32 %48, i32* %4, align 4
  br label %30

49:                                               ; preds = %30
  store i32 0, i32* %4, align 4
  br label %50

50:                                               ; preds = %68, %49
  %51 = load i32, i32* %4, align 4
  %52 = icmp slt i32 %51, 365
  br i1 %52, label %53, label %71

53:                                               ; preds = %50
  %54 = load i32, i32* %4, align 4
  %55 = sext i32 %54 to i64
  %56 = getelementptr inbounds [365 x i32], [365 x i32]* %2, i64 0, i64 %55
  %57 = load i32, i32* %56, align 4
  %58 = icmp eq i32 %57, 5
  br i1 %58, label %59, label %67

59:                                               ; preds = %53
  %60 = load i32, i32* %4, align 4
  %61 = add nsw i32 %60, 1
  %62 = load i32, i32* %5, align 4
  %63 = sext i32 %62 to i64
  %64 = getelementptr inbounds [100 x i32], [100 x i32]* %7, i64 0, i64 %63
  store i32 %61, i32* %64, align 4
  %65 = load i32, i32* %5, align 4
  %66 = add nsw i32 %65, 1
  store i32 %66, i32* %5, align 4
  br label %67

67:                                               ; preds = %59, %53
  br label %68

68:                                               ; preds = %67
  %69 = load i32, i32* %4, align 4
  %70 = add nsw i32 %69, 1
  store i32 %70, i32* %4, align 4
  br label %50

71:                                               ; preds = %50
  store i32 0, i32* %4, align 4
  br label %72

72:                                               ; preds = %183, %71
  %73 = load i32, i32* %4, align 4
  %74 = icmp slt i32 %73, 100
  br i1 %74, label %75, label %186

75:                                               ; preds = %72
  %76 = load i32, i32* %4, align 4
  %77 = sext i32 %76 to i64
  %78 = getelementptr inbounds [100 x i32], [100 x i32]* %7, i64 0, i64 %77
  %79 = load i32, i32* %78, align 4
  %80 = icmp eq i32 %79, 13
  br i1 %80, label %81, label %83

81:                                               ; preds = %75
  %82 = call i32 (i8*, ...) @printf(i8* getelementptr inbounds ([3 x i8], [3 x i8]* @.str.1, i64 0, i64 0))
  br label %182

83:                                               ; preds = %75
  %84 = load i32, i32* %4, align 4
  %85 = sext i32 %84 to i64
  %86 = getelementptr inbounds [100 x i32], [100 x i32]* %7, i64 0, i64 %85
  %87 = load i32, i32* %86, align 4
  %88 = icmp eq i32 %87, 44
  br i1 %88, label %89, label %91

89:                                               ; preds = %83
  %90 = call i32 (i8*, ...) @printf(i8* getelementptr inbounds ([3 x i8], [3 x i8]* @.str.2, i64 0, i64 0))
  br label %181

91:                                               ; preds = %83
  %92 = load i32, i32* %4, align 4
  %93 = sext i32 %92 to i64
  %94 = getelementptr inbounds [100 x i32], [100 x i32]* %7, i64 0, i64 %93
  %95 = load i32, i32* %94, align 4
  %96 = icmp eq i32 %95, 72
  br i1 %96, label %97, label %99

97:                                               ; preds = %91
  %98 = call i32 (i8*, ...) @printf(i8* getelementptr inbounds ([3 x i8], [3 x i8]* @.str.3, i64 0, i64 0))
  br label %180

99:                                               ; preds = %91
  %100 = load i32, i32* %4, align 4
  %101 = sext i32 %100 to i64
  %102 = getelementptr inbounds [100 x i32], [100 x i32]* %7, i64 0, i64 %101
  %103 = load i32, i32* %102, align 4
  %104 = icmp eq i32 %103, 103
  br i1 %104, label %105, label %107

105:                                              ; preds = %99
  %106 = call i32 (i8*, ...) @printf(i8* getelementptr inbounds ([3 x i8], [3 x i8]* @.str.4, i64 0, i64 0))
  br label %179

107:                                              ; preds = %99
  %108 = load i32, i32* %4, align 4
  %109 = sext i32 %108 to i64
  %110 = getelementptr inbounds [100 x i32], [100 x i32]* %7, i64 0, i64 %109
  %111 = load i32, i32* %110, align 4
  %112 = icmp eq i32 %111, 133
  br i1 %112, label %113, label %115

113:                                              ; preds = %107
  %114 = call i32 (i8*, ...) @printf(i8* getelementptr inbounds ([3 x i8], [3 x i8]* @.str.5, i64 0, i64 0))
  br label %178

115:                                              ; preds = %107
  %116 = load i32, i32* %4, align 4
  %117 = sext i32 %116 to i64
  %118 = getelementptr inbounds [100 x i32], [100 x i32]* %7, i64 0, i64 %117
  %119 = load i32, i32* %118, align 4
  %120 = icmp eq i32 %119, 164
  br i1 %120, label %121, label %123

121:                                              ; preds = %115
  %122 = call i32 (i8*, ...) @printf(i8* getelementptr inbounds ([3 x i8], [3 x i8]* @.str.6, i64 0, i64 0))
  br label %177

123:                                              ; preds = %115
  %124 = load i32, i32* %4, align 4
  %125 = sext i32 %124 to i64
  %126 = getelementptr inbounds [100 x i32], [100 x i32]* %7, i64 0, i64 %125
  %127 = load i32, i32* %126, align 4
  %128 = icmp eq i32 %127, 194
  br i1 %128, label %129, label %131

129:                                              ; preds = %123
  %130 = call i32 (i8*, ...) @printf(i8* getelementptr inbounds ([3 x i8], [3 x i8]* @.str.7, i64 0, i64 0))
  br label %176

131:                                              ; preds = %123
  %132 = load i32, i32* %4, align 4
  %133 = sext i32 %132 to i64
  %134 = getelementptr inbounds [100 x i32], [100 x i32]* %7, i64 0, i64 %133
  %135 = load i32, i32* %134, align 4
  %136 = icmp eq i32 %135, 225
  br i1 %136, label %137, label %139

137:                                              ; preds = %131
  %138 = call i32 (i8*, ...) @printf(i8* getelementptr inbounds ([3 x i8], [3 x i8]* @.str.8, i64 0, i64 0))
  br label %175

139:                                              ; preds = %131
  %140 = load i32, i32* %4, align 4
  %141 = sext i32 %140 to i64
  %142 = getelementptr inbounds [100 x i32], [100 x i32]* %7, i64 0, i64 %141
  %143 = load i32, i32* %142, align 4
  %144 = icmp eq i32 %143, 256
  br i1 %144, label %145, label %147

145:                                              ; preds = %139
  %146 = call i32 (i8*, ...) @printf(i8* getelementptr inbounds ([3 x i8], [3 x i8]* @.str.9, i64 0, i64 0))
  br label %174

147:                                              ; preds = %139
  %148 = load i32, i32* %4, align 4
  %149 = sext i32 %148 to i64
  %150 = getelementptr inbounds [100 x i32], [100 x i32]* %7, i64 0, i64 %149
  %151 = load i32, i32* %150, align 4
  %152 = icmp eq i32 %151, 286
  br i1 %152, label %153, label %155

153:                                              ; preds = %147
  %154 = call i32 (i8*, ...) @printf(i8* getelementptr inbounds ([4 x i8], [4 x i8]* @.str.10, i64 0, i64 0))
  br label %173

155:                                              ; preds = %147
  %156 = load i32, i32* %4, align 4
  %157 = sext i32 %156 to i64
  %158 = getelementptr inbounds [100 x i32], [100 x i32]* %7, i64 0, i64 %157
  %159 = load i32, i32* %158, align 4
  %160 = icmp eq i32 %159, 317
  br i1 %160, label %161, label %163

161:                                              ; preds = %155
  %162 = call i32 (i8*, ...) @printf(i8* getelementptr inbounds ([4 x i8], [4 x i8]* @.str.11, i64 0, i64 0))
  br label %172

163:                                              ; preds = %155
  %164 = load i32, i32* %4, align 4
  %165 = sext i32 %164 to i64
  %166 = getelementptr inbounds [100 x i32], [100 x i32]* %7, i64 0, i64 %165
  %167 = load i32, i32* %166, align 4
  %168 = icmp eq i32 %167, 347
  br i1 %168, label %169, label %171

169:                                              ; preds = %163
  %170 = call i32 (i8*, ...) @printf(i8* getelementptr inbounds ([4 x i8], [4 x i8]* @.str.12, i64 0, i64 0))
  br label %171

171:                                              ; preds = %169, %163
  br label %172

172:                                              ; preds = %171, %161
  br label %173

173:                                              ; preds = %172, %153
  br label %174

174:                                              ; preds = %173, %145
  br label %175

175:                                              ; preds = %174, %137
  br label %176

176:                                              ; preds = %175, %129
  br label %177

177:                                              ; preds = %176, %121
  br label %178

178:                                              ; preds = %177, %113
  br label %179

179:                                              ; preds = %178, %105
  br label %180

180:                                              ; preds = %179, %97
  br label %181

181:                                              ; preds = %180, %89
  br label %182

182:                                              ; preds = %181, %81
  br label %183

183:                                              ; preds = %182
  %184 = load i32, i32* %4, align 4
  %185 = add nsw i32 %184, 1
  store i32 %185, i32* %4, align 4
  br label %72

186:                                              ; preds = %72
  ret i32 0
}

declare dso_local i32 @__isoc99_scanf(i8*, ...) #1

declare dso_local i32 @printf(i8*, ...) #1


!llvm.module.flags = !{!0}
!llvm.ident = !{!1}

!0 = !{i32 1, !"wchar_size", i32 4}
!1 = !{!"clang version 10.0.0-4ubuntu1 "}
